; Function Attrs: nounwind uwtable
define dso_local i64 @json_send(ptr noundef readonly captures(none) %0) local_unnamed_addr #0 {
  %2 = alloca %struct.StringInfoData, align 8
  %3 = getelementptr inbounds nuw i8, ptr %0, i64 32
  %4 = load i64, ptr %3, align 8
  %5 = inttoptr i64 %4 to ptr
  %6 = tail call ptr @pg_detoast_datum_packed(ptr noundef %5) #10
  call void @llvm.lifetime.start.p0(i64 24, ptr nonnull %2) #10
  call void @pq_begintypsend(ptr noundef nonnull %2) #10
  %7 = load i8, ptr %6, align 1
  %8 = zext i8 %7 to i32
  %9 = and i32 %8, 1
  %.not = icmp eq i32 %9, 0
  %10 = getelementptr inbounds nuw i8, ptr %6, i64 1
  %11 = icmp eq i8 %7, 1
  br i1 %11, label %12, label %20

12:                                               ; preds = %1
  %13 = load i8, ptr %10, align 1
  %14 = icmp eq i8 %13, 1
  %15 = and i8 %13, -2
  %16 = icmp eq i8 %15, 2
  %or.cond = or i1 %14, %16
  %17 = icmp eq i8 %13, 18
  %18 = select i1 %17, i32 16, i32 0
  %19 = select i1 %or.cond, i32 8, i32 %18
  br label %28

20:                                               ; preds = %1
  br i1 %.not, label %24, label %21

21:                                               ; preds = %20
  %22 = lshr i32 %8, 1
  %23 = add nsw i32 %22, -1
  br label %28

24:                                               ; preds = %20
  %25 = load i32, ptr %6, align 4
  %26 = lshr i32 %25, 2
  %27 = add nsw i32 %26, -4
  br label %28

28:                                               ; preds = %21, %24, %12
  %29 = phi i32 [ %19, %12 ], [ %23, %21 ], [ %27, %24 ]
  %30 = getelementptr inbounds nuw i8, ptr %6, i64 4
  %31 = select i1 %.not, ptr %30, ptr %10
  call void @pq_sendtext(ptr noundef nonnull %2, ptr noundef nonnull %31, i32 noundef %29) #10
  %32 = call ptr @pq_endtypsend(ptr noundef nonnull %2) #10
  %33 = ptrtoint ptr %32 to i64
  call void @llvm.lifetime.end.p0(i64 24, ptr nonnull %2) #10
  ret i64 %33
}